Certificate:
    Data:
        Version: 3 (0x2)
        Serial Number: 1 (0x1)
        Signature Algorithm: sha256WithRSAEncryption
        Issuer: C=TW, ST=Radius, L=Somewhere, O=Example Inc./emailAddress=admin@example.org, CN=Tseng Shang Chieh Root Certificate Authority
        Validity
            Not Before: Nov 18 03:24:36 2024 GMT
            Not After : Nov 18 03:24:36 2027 GMT
        Subject: C=TW, ST=Radius, O=Example Inc., CN=freeradius-server.gke.tsengsyu.com/emailAddress=admin@example.org
        Subject Public Key Info:
            Public Key Algorithm: rsaEncryption
                RSA Public-Key: (2048 bit)
                Modulus:
                    00:c7:25:0e:07:a1:af:78:d3:fe:df:3e:d3:35:5b:
                    51:8c:d7:63:a9:a1:2f:4f:4c:24:5a:a7:0e:ec:50:
                    b8:ce:db:7b:ab:b5:77:95:80:f7:6e:c0:46:63:06:
                    dd:b2:f3:63:8b:63:a9:47:b0:8b:b2:95:85:6b:03:
                    21:c0:13:b2:76:cd:0e:90:91:72:19:25:20:a2:93:
                    2a:31:07:26:9d:d1:9e:01:1b:df:c8:f4:de:56:bb:
                    5c:eb:99:a4:87:67:6b:c0:63:34:ee:b8:dc:f9:43:
                    20:e4:d6:58:53:d3:23:01:c3:2c:9a:c9:75:07:e3:
                    a0:04:00:8d:8c:e5:4c:d1:5a:b5:fe:50:7a:db:b5:
                    19:13:9f:3b:95:89:03:f4:53:71:76:38:c8:2a:06:
                    78:8f:67:a9:0c:37:7f:4a:52:96:9d:48:47:a7:12:
                    0b:b1:bd:7a:46:de:5c:41:51:71:8c:c0:5f:6c:95:
                    41:f2:b1:95:0e:16:4e:26:b3:33:10:ab:6c:29:ee:
                    c6:32:6b:61:ec:98:a2:cb:6b:09:67:37:ee:45:ee:
                    a1:60:bc:85:bc:5c:ea:20:ec:63:a2:7f:9e:cf:f4:
                    39:de:68:33:57:17:d3:26:aa:50:40:f6:f5:83:6d:
                    78:a1:f9:5c:7a:78:86:b3:e5:6c:2b:73:ca:67:e8:
                    bf:3f
                Exponent: 65537 (0x10001)
        X509v3 extensions:
            X509v3 Extended Key Usage: 
                TLS Web Server Authentication
            X509v3 CRL Distribution Points: 

                Full Name:
                  URI:http://www.example.com/example_ca.crl

            X509v3 Certificate Policies: 
                Policy: 1.3.6.1.4.1.40808.1.3.2

    Signature Algorithm: sha256WithRSAEncryption
         82:a7:10:8f:a6:82:ae:26:4d:94:7d:7d:13:6e:e8:38:b7:cb:
         5e:43:cf:7b:b9:38:c7:3f:8a:95:a3:ef:64:0f:8a:c5:b4:55:
         9c:91:4f:8d:ed:66:d0:0a:31:44:e1:5f:7c:7b:c7:c3:62:2f:
         aa:03:aa:55:04:ba:13:97:da:e9:80:fc:d1:a1:66:92:4a:98:
         17:46:96:d5:e8:71:34:e8:f9:e8:ba:24:df:c8:13:f0:99:86:
         0d:3d:8e:21:13:61:a5:a9:21:a4:3d:7b:c0:89:92:ef:aa:31:
         c4:88:cd:fe:86:48:19:27:02:06:30:39:c1:5d:ac:4c:5b:7a:
         38:3a:e1:cb:23:7b:88:7a:f9:84:2d:6e:75:4d:05:06:da:f5:
         be:be:a1:d3:33:af:d6:63:a5:03:1a:c9:d5:1a:31:8f:0a:76:
         b4:f7:c3:5f:e5:67:f9:8a:94:e5:f2:9c:bf:8a:5f:04:19:40:
         65:32:5f:14:ca:51:5b:9f:d2:65:af:01:ad:09:fa:cd:02:e6:
         1f:79:3a:2d:65:06:98:27:47:95:5c:ee:18:be:b3:50:8c:44:
         e2:e0:b2:ae:8c:23:73:10:f8:57:24:1c:92:02:eb:81:91:31:
         d7:4c:0a:2a:af:22:5f:7b:9a:b9:48:76:e1:e7:01:85:db:d4:
         bf:8e:4e:c2
-----BEGIN CERTIFICATE-----
MIIEDDCCAvSgAwIBAgIBATANBgkqhkiG9w0BAQsFADCBojELMAkGA1UEBhMCVFcx
DzANBgNVBAgMBlJhZGl1czESMBAGA1UEBwwJU29tZXdoZXJlMRUwEwYDVQQKDAxF
eGFtcGxlIEluYy4xIDAeBgkqhkiG9w0BCQEWEWFkbWluQGV4YW1wbGUub3JnMTUw
MwYDVQQDDCxUc2VuZyBTaGFuZyBDaGllaCBSb290IENlcnRpZmljYXRlIEF1dGhv
cml0eTAeFw0yNDExMTgwMzI0MzZaFw0yNzExMTgwMzI0MzZaMIGEMQswCQYDVQQG
EwJUVzEPMA0GA1UECAwGUmFkaXVzMRUwEwYDVQQKDAxFeGFtcGxlIEluYy4xKzAp
BgNVBAMMImZyZWVyYWRpdXMtc2VydmVyLmdrZS50c2VuZ3N5dS5jb20xIDAeBgkq
hkiG9w0BCQEWEWFkbWluQGV4YW1wbGUub3JnMIIBIjANBgkqhkiG9w0BAQEFAAOC
AQ8AMIIBCgKCAQEAxyUOB6GveNP+3z7TNVtRjNdjqaEvT0wkWqcO7FC4ztt7q7V3
lYD3bsBGYwbdsvNji2OpR7CLspWFawMhwBOyds0OkJFyGSUgopMqMQcmndGeARvf
yPTeVrtc65mkh2drwGM07rjc+UMg5NZYU9MjAcMsmsl1B+OgBACNjOVM0Vq1/lB6
27UZE587lYkD9FNxdjjIKgZ4j2epDDd/SlKWnUhHpxILsb16Rt5cQVFxjMBfbJVB
8rGVDhZOJrMzEKtsKe7GMmth7Jiiy2sJZzfuRe6hYLyFvFzqIOxjon+ez/Q53mgz
VxfTJqpQQPb1g214oflceniGs+VsK3PKZ+i/PwIDAQABo2kwZzATBgNVHSUEDDAK
BggrBgEFBQcDATA2BgNVHR8ELzAtMCugKaAnhiVodHRwOi8vd3d3LmV4YW1wbGUu
Y29tL2V4YW1wbGVfY2EuY3JsMBgGA1UdIAQRMA8wDQYLKwYBBAGCvmgBAwIwDQYJ
KoZIhvcNAQELBQADggEBAIKnEI+mgq4mTZR9fRNu6Di3y15Dz3u5OMc/ipWj72QP
isW0VZyRT43tZtAKMUThX3x7x8NiL6oDqlUEuhOX2umA/NGhZpJKmBdGltXocTTo
+ei6JN/IE/CZhg09jiETYaWpIaQ9e8CJku+qMcSIzf6GSBknAgYwOcFdrExbejg6
4csje4h6+YQtbnVNBQba9b6+odMzr9ZjpQMaydUaMY8KdrT3w1/lZ/mKlOXynL+K
XwQZQGUyXxTKUVuf0mWvAa0J+s0C5h95Oi1lBpgnR5Vc7hi+s1CMROLgsq6MI3MQ
+FckHJIC64GRMddMCiqvIl97mrlIduHnAYXb1L+OTsI=
-----END CERTIFICATE-----
