Certificate:
    Data:
        Version: 3 (0x2)
        Serial Number: 1 (0x1)
        Signature Algorithm: sha256WithRSAEncryption
        Issuer: C=FR, ST=Radius, L=Somewhere, O=Example Inc./emailAddress=admin@example.org, CN=Example Certificate Authority
        Validity
            Not Before: Mar  6 07:17:01 2024 GMT
            Not After : Jan 13 07:17:01 2034 GMT
        Subject: C=FR, ST=Radius, O=Example Inc., CN=Example Server Certificate/emailAddress=admin@example.org
        Subject Public Key Info:
            Public Key Algorithm: rsaEncryption
                Public-Key: (2048 bit)
                Modulus:
                    00:ce:0e:4c:23:68:b6:c1:18:15:c5:95:5c:86:a6:
                    df:2d:89:7e:93:1a:b1:11:f9:b3:b2:0c:f4:82:79:
                    37:ac:1d:b2:5a:41:fe:3c:37:58:4a:58:e5:d3:65:
                    72:a8:3a:c6:34:0a:e3:bb:12:5d:36:ff:0b:62:4d:
                    26:c5:c4:04:ba:85:ff:83:02:e4:54:ed:45:4c:be:
                    6d:ff:d7:ff:80:89:23:90:b5:f7:16:dc:5b:83:8a:
                    bc:cd:97:e8:62:f3:c5:c7:e7:2a:ce:f4:69:ce:d0:
                    f8:14:d3:8b:6f:aa:0c:41:f7:ef:3e:e2:1d:6c:75:
                    9f:f0:70:ca:71:f8:f4:b9:88:57:44:ed:09:97:e5:
                    e9:e4:21:f9:de:f9:c0:64:71:32:d3:e4:3b:23:2a:
                    42:6c:d3:dc:12:22:62:d8:30:6c:de:70:d1:da:6b:
                    ee:cb:d9:32:62:32:77:4b:a4:ae:d1:ad:75:94:7c:
                    4e:dc:03:77:17:0f:34:6b:cf:27:b4:1c:93:e3:bb:
                    be:d3:0a:ee:dc:89:9d:68:6b:c0:47:e9:e0:a5:6c:
                    aa:b7:4a:12:1f:0f:67:80:df:23:ff:03:51:ed:2b:
                    bb:d8:ff:ca:96:8a:3e:16:06:9f:a0:50:d5:57:8c:
                    0e:d5:be:ca:3e:ac:9c:01:5e:76:7a:dc:ca:12:56:
                    6f:d5
                Exponent: 65537 (0x10001)
        X509v3 extensions:
            X509v3 Extended Key Usage: 
                TLS Web Server Authentication
            X509v3 CRL Distribution Points: 
                Full Name:
                  URI:http://www.example.com/example_ca.crl
            X509v3 Certificate Policies: 
                Policy: 1.3.6.1.4.1.40808.1.3.2
            X509v3 Subject Key Identifier: 
                E5:FF:25:16:13:62:F5:54:F2:31:0E:1B:83:C6:51:54:39:D3:0E:AD
            X509v3 Authority Key Identifier: 
                5A:59:C6:CF:6F:EE:C3:06:59:7B:85:71:02:51:0D:4C:33:02:F1:12
    Signature Algorithm: sha256WithRSAEncryption
    Signature Value:
        a4:83:23:06:c5:39:e7:59:1d:25:10:29:9a:e6:78:23:65:6b:
        72:97:61:12:10:eb:e0:43:24:66:6b:40:c1:93:51:19:c3:bc:
        e3:a0:f9:76:c2:c5:ee:25:a3:b9:2d:49:93:03:7b:3a:69:ac:
        a0:fa:51:84:70:fc:f0:76:f7:0d:8c:77:05:79:32:49:e7:76:
        02:91:b5:8a:7b:de:9f:c4:45:f3:ff:5b:ce:d9:61:6d:de:a1:
        34:b4:48:93:51:a4:29:cc:f4:cb:07:d6:db:51:72:48:27:77:
        d2:0d:b8:3d:c6:b5:ce:b3:e5:de:cd:f8:20:b7:a1:ea:26:ee:
        bf:56:6e:c8:c7:15:76:b3:1d:b5:90:ee:c6:c2:01:3d:ff:6c:
        45:6b:7c:b9:f5:04:69:32:fe:13:68:36:f6:e4:ed:65:a0:3d:
        5f:f4:8a:a6:f3:90:3f:96:c9:f5:cb:6a:bd:38:bb:3a:71:8d:
        27:18:e7:75:0b:a4:76:2d:58:96:d0:f8:a4:69:72:15:fa:1b:
        60:1b:46:a7:8a:86:e5:ad:3b:f5:a4:21:b8:4b:c3:32:e8:8a:
        a6:14:53:da:bd:76:f8:59:29:23:59:e0:1e:61:99:f8:b0:3c:
        e1:34:8b:94:26:87:99:b1:ee:19:a6:dc:c5:12:1c:39:c1:7f:
        d6:d4:31:94
-----BEGIN CERTIFICATE-----
MIIENjCCAx6gAwIBAgIBATANBgkqhkiG9w0BAQsFADCBkzELMAkGA1UEBhMCRlIx
DzANBgNVBAgMBlJhZGl1czESMBAGA1UEBwwJU29tZXdoZXJlMRUwEwYDVQQKDAxF
eGFtcGxlIEluYy4xIDAeBgkqhkiG9w0BCQEWEWFkbWluQGV4YW1wbGUub3JnMSYw
JAYDVQQDDB1FeGFtcGxlIENlcnRpZmljYXRlIEF1dGhvcml0eTAeFw0yNDAzMDYw
NzE3MDFaFw0zNDAxMTMwNzE3MDFaMHwxCzAJBgNVBAYTAkZSMQ8wDQYDVQQIDAZS
YWRpdXMxFTATBgNVBAoMDEV4YW1wbGUgSW5jLjEjMCEGA1UEAwwaRXhhbXBsZSBT
ZXJ2ZXIgQ2VydGlmaWNhdGUxIDAeBgkqhkiG9w0BCQEWEWFkbWluQGV4YW1wbGUu
b3JnMIIBIjANBgkqhkiG9w0BAQEFAAOCAQ8AMIIBCgKCAQEAzg5MI2i2wRgVxZVc
hqbfLYl+kxqxEfmzsgz0gnk3rB2yWkH+PDdYSljl02VyqDrGNArjuxJdNv8LYk0m
xcQEuoX/gwLkVO1FTL5t/9f/gIkjkLX3Ftxbg4q8zZfoYvPFx+cqzvRpztD4FNOL
b6oMQffvPuIdbHWf8HDKcfj0uYhXRO0Jl+Xp5CH53vnAZHEy0+Q7IypCbNPcEiJi
2DBs3nDR2mvuy9kyYjJ3S6Su0a11lHxO3AN3Fw80a88ntByT47u+0wru3ImdaGvA
R+ngpWyqt0oSHw9ngN8j/wNR7Su72P/Kloo+FgafoFDVV4wO1b7KPqycAV52etzK
ElZv1QIDAQABo4GqMIGnMBMGA1UdJQQMMAoGCCsGAQUFBwMBMDYGA1UdHwQvMC0w
K6ApoCeGJWh0dHA6Ly93d3cuZXhhbXBsZS5jb20vZXhhbXBsZV9jYS5jcmwwGAYD
VR0gBBEwDzANBgsrBgEEAYK+aAEDAjAdBgNVHQ4EFgQU5f8lFhNi9VTyMQ4bg8ZR
VDnTDq0wHwYDVR0jBBgwFoAUWlnGz2/uwwZZe4VxAlENTDMC8RIwDQYJKoZIhvcN
AQELBQADggEBAKSDIwbFOedZHSUQKZrmeCNla3KXYRIQ6+BDJGZrQMGTURnDvOOg
+XbCxe4lo7ktSZMDezpprKD6UYRw/PB29w2MdwV5MknndgKRtYp73p/ERfP/W87Z
YW3eoTS0SJNRpCnM9MsH1ttRckgnd9INuD3Gtc6z5d7N+CC3oeom7r9WbsjHFXaz
HbWQ7sbCAT3/bEVrfLn1BGky/hNoNvbk7WWgPV/0iqbzkD+WyfXLar04uzpxjScY
53ULpHYtWJbQ+KRpchX6G2AbRqeKhuWtO/WkIbhLwzLoiqYUU9q9dvhZKSNZ4B5h
mfiwPOE0i5Qmh5mx7hmm3MUSHDnBf9bUMZQ=
-----END CERTIFICATE-----
