Certificate:
    Data:
        Version: 3 (0x2)
        Serial Number: 1 (0x1)
        Signature Algorithm: sha256WithRSAEncryption
        Issuer: C=TW, ST=Taiwan, L=Taipei, O=TDC-QA/emailAddress=admin@tdcqa.local, CN=tdcqa.local
        Validity
            Not Before: Mar 12 03:35:32 2024 GMT
            Not After : Jan 19 03:35:32 2034 GMT
        Subject: C=TW, ST=Taiwan, O=TDC-QA, CN=freeradius-server.tdcqa.local/emailAddress=freeradius-server@tdcqa.local
        Subject Public Key Info:
            Public Key Algorithm: rsaEncryption
                Public-Key: (2048 bit)
                Modulus:
                    00:d1:b1:1d:33:64:23:c3:a1:96:d6:99:a4:c7:26:
                    0b:fd:8a:4f:40:28:8e:37:32:8c:6f:39:5e:3e:9b:
                    6d:7a:5d:83:ec:b0:6f:20:a9:1e:67:a8:63:ae:b7:
                    2b:9e:fc:e0:3f:50:1e:26:70:7c:16:b7:10:a8:aa:
                    92:34:e5:7c:b4:9a:51:3c:d7:f1:6b:9a:a6:6f:20:
                    55:f9:d9:33:5e:fb:ea:1b:6d:df:0b:bf:13:95:e0:
                    a7:ad:ef:a5:c8:d4:8a:50:d2:cb:b6:78:94:89:b6:
                    9f:34:33:b8:a9:cf:c4:9c:d6:e8:ed:c7:f4:1a:7f:
                    7a:e5:e9:a9:e4:72:73:9e:4b:5d:82:de:ae:f9:77:
                    30:86:32:ed:27:5f:8e:84:fb:3a:5f:3a:65:aa:a5:
                    64:fc:87:20:20:55:8b:d5:c7:92:35:a4:9f:ab:b4:
                    96:ef:77:5b:80:e3:40:13:40:83:dc:3a:04:13:bd:
                    4c:2d:10:f3:01:ee:8e:79:34:82:88:08:ae:82:82:
                    f7:33:2f:84:2d:c3:d7:c8:45:ad:3d:bf:bd:2e:c6:
                    6d:75:45:d4:2c:1c:2d:29:11:44:83:d1:23:a0:26:
                    fa:8e:d5:f7:92:72:a7:39:fe:43:39:6e:6f:17:5a:
                    a1:97:ae:a5:66:b4:98:3c:74:e7:c9:25:5b:30:ab:
                    0b:81
                Exponent: 65537 (0x10001)
        X509v3 extensions:
            X509v3 Extended Key Usage: 
                TLS Web Server Authentication
            X509v3 CRL Distribution Points: 
                Full Name:
                  URI:http://www.example.com/example_ca.crl
            X509v3 Certificate Policies: 
                Policy: 1.3.6.1.4.1.40808.1.3.2
            X509v3 Subject Key Identifier: 
                6D:20:97:4A:D7:0D:D1:30:1D:0D:14:08:21:BB:46:51:EC:AB:F3:7E
            X509v3 Authority Key Identifier: 
                84:28:1C:63:5C:7E:69:57:52:52:25:8E:00:1A:7A:EB:DF:06:A4:D7
    Signature Algorithm: sha256WithRSAEncryption
    Signature Value:
        35:f9:00:fd:44:65:8b:bb:cb:76:b2:35:c6:06:2d:f4:aa:7b:
        fa:f6:19:35:5f:24:47:f7:49:8a:7a:c2:9f:8f:6b:71:b5:1f:
        55:79:2d:d5:9f:41:7e:81:9d:65:d8:39:03:96:14:6d:32:91:
        4d:f7:b3:f7:01:bd:73:62:d1:18:d9:cd:94:39:d9:30:92:a4:
        5f:74:5a:ee:79:c1:f9:eb:02:a8:80:60:95:63:34:12:3c:00:
        26:23:3b:ce:5e:07:3a:1d:59:85:3b:77:57:68:c5:3a:07:b7:
        14:31:1f:3c:89:40:ab:18:19:22:55:4b:bc:6e:c8:f4:8f:c1:
        ff:98:ff:e5:32:9b:2d:25:12:23:6e:d3:33:13:84:42:3b:40:
        b9:d7:2a:09:3a:b7:c2:0e:9d:58:d6:ee:8f:10:db:81:05:4a:
        97:e9:08:94:ba:97:78:3e:60:8d:61:34:74:fc:44:6c:97:10:
        8c:47:54:6d:9c:c8:bc:cc:60:6f:28:84:fe:d3:17:40:0a:c2:
        a4:e3:bb:d1:85:a8:48:88:ed:64:27:63:bb:b7:a7:a8:2d:82:
        1b:fd:f4:92:48:5e:6a:f7:f3:66:89:5e:7d:8d:e2:a5:8a:1e:
        41:0b:38:4e:ef:79:7b:cc:3c:ff:a5:91:a6:61:c9:5f:10:56:
        ee:4e:76:36
-----BEGIN CERTIFICATE-----
MIIEJDCCAwygAwIBAgIBATANBgkqhkiG9w0BAQsFADB4MQswCQYDVQQGEwJUVzEP
MA0GA1UECAwGVGFpd2FuMQ8wDQYDVQQHDAZUYWlwZWkxDzANBgNVBAoMBlREQy1R
QTEgMB4GCSqGSIb3DQEJARYRYWRtaW5AdGRjcWEubG9jYWwxFDASBgNVBAMMC3Rk
Y3FhLmxvY2FsMB4XDTI0MDMxMjAzMzUzMloXDTM0MDExOTAzMzUzMlowgYUxCzAJ
BgNVBAYTAlRXMQ8wDQYDVQQIDAZUYWl3YW4xDzANBgNVBAoMBlREQy1RQTEmMCQG
A1UEAwwdZnJlZXJhZGl1cy1zZXJ2ZXIudGRjcWEubG9jYWwxLDAqBgkqhkiG9w0B
CQEWHWZyZWVyYWRpdXMtc2VydmVyQHRkY3FhLmxvY2FsMIIBIjANBgkqhkiG9w0B
AQEFAAOCAQ8AMIIBCgKCAQEA0bEdM2Qjw6GW1pmkxyYL/YpPQCiONzKMbzlePptt
el2D7LBvIKkeZ6hjrrcrnvzgP1AeJnB8FrcQqKqSNOV8tJpRPNfxa5qmbyBV+dkz
XvvqG23fC78TleCnre+lyNSKUNLLtniUibafNDO4qc/EnNbo7cf0Gn965emp5HJz
nktdgt6u+XcwhjLtJ1+OhPs6XzplqqVk/IcgIFWL1ceSNaSfq7SW73dbgONAE0CD
3DoEE71MLRDzAe6OeTSCiAiugoL3My+ELcPXyEWtPb+9LsZtdUXULBwtKRFEg9Ej
oCb6jtX3knKnOf5DOW5vF1qhl66lZrSYPHTnySVbMKsLgQIDAQABo4GqMIGnMBMG
A1UdJQQMMAoGCCsGAQUFBwMBMDYGA1UdHwQvMC0wK6ApoCeGJWh0dHA6Ly93d3cu
ZXhhbXBsZS5jb20vZXhhbXBsZV9jYS5jcmwwGAYDVR0gBBEwDzANBgsrBgEEAYK+
aAEDAjAdBgNVHQ4EFgQUbSCXStcN0TAdDRQIIbtGUeyr834wHwYDVR0jBBgwFoAU
hCgcY1x+aVdSUiWOABp6698GpNcwDQYJKoZIhvcNAQELBQADggEBADX5AP1EZYu7
y3ayNcYGLfSqe/r2GTVfJEf3SYp6wp+Pa3G1H1V5LdWfQX6BnWXYOQOWFG0ykU33
s/cBvXNi0RjZzZQ52TCSpF90Wu55wfnrAqiAYJVjNBI8ACYjO85eBzodWYU7d1do
xToHtxQxHzyJQKsYGSJVS7xuyPSPwf+Y/+Uymy0lEiNu0zMThEI7QLnXKgk6t8IO
nVjW7o8Q24EFSpfpCJS6l3g+YI1hNHT8RGyXEIxHVG2cyLzMYG8ohP7TF0AKwqTj
u9GFqEiI7WQnY7u3p6gtghv99JJIXmr382aJXn2N4qWKHkELOE7veXvMPP+lkaZh
yV8QVu5OdjY=
-----END CERTIFICATE-----
