Certificate:
    Data:
        Version: 3 (0x2)
        Serial Number: 2 (0x2)
        Signature Algorithm: sha256WithRSAEncryption
        Issuer: C=FR, ST=Radius, L=Somewhere, O=Example Inc./emailAddress=admin@example.org, CN=Example Certificate Authority
        Validity
            Not Before: Mar  6 07:17:01 2024 GMT
            Not After : Jan 13 07:17:01 2034 GMT
        Subject: C=FR, ST=Radius, O=Example Inc., CN=user@example.org/emailAddress=user@example.org
        Subject Public Key Info:
            Public Key Algorithm: rsaEncryption
                Public-Key: (2048 bit)
                Modulus:
                    00:c3:f9:e2:df:44:2e:3c:ef:5e:51:4e:ed:37:df:
                    ab:0c:32:36:6b:66:f3:72:98:6b:99:cc:29:a5:48:
                    35:05:52:ac:cd:d3:7f:92:08:68:5c:08:d7:18:db:
                    e3:41:0d:4e:2d:c6:18:a0:72:0c:8d:5f:dd:ef:10:
                    4b:30:d8:88:4e:52:bf:00:4a:ca:3a:90:85:47:18:
                    13:5c:f4:99:29:ae:86:d9:5f:8b:a1:4d:ec:6c:51:
                    0e:a0:65:38:37:7d:e4:89:79:db:05:10:b7:27:2b:
                    e6:1c:a2:c4:5f:a4:0b:99:27:f5:9c:ec:22:8f:fc:
                    e0:65:09:67:44:0e:3d:6d:06:59:77:92:0d:40:ad:
                    fc:a5:f3:f9:40:59:4d:dd:f5:1d:18:e9:2a:44:3e:
                    90:68:09:16:ab:ed:fa:d2:57:5b:88:a6:93:04:bd:
                    76:fb:82:25:c3:4f:48:2b:d5:47:30:02:93:0a:aa:
                    aa:48:9e:9a:5e:6a:ac:37:72:7a:74:19:35:24:e7:
                    85:2e:42:77:ad:38:9b:34:57:fa:77:5c:24:f8:ce:
                    ec:98:82:fb:ed:1a:74:12:c8:02:84:5a:b6:6d:0a:
                    6e:4e:33:76:cf:d9:6e:19:c1:49:8b:bb:19:92:30:
                    5d:64:a2:68:ac:57:61:34:b1:54:c0:3d:44:4e:c1:
                    08:d7
                Exponent: 65537 (0x10001)
        X509v3 extensions:
            X509v3 Extended Key Usage: 
                TLS Web Client Authentication
            X509v3 CRL Distribution Points: 
                Full Name:
                  URI:http://www.example.com/example_ca.crl
            X509v3 Subject Key Identifier: 
                FD:50:9E:B7:52:4D:3C:8A:13:AB:A9:E2:82:49:1B:30:C7:42:1E:4E
            X509v3 Authority Key Identifier: 
                5A:59:C6:CF:6F:EE:C3:06:59:7B:85:71:02:51:0D:4C:33:02:F1:12
    Signature Algorithm: sha256WithRSAEncryption
    Signature Value:
        4a:56:2c:55:a4:22:ac:c2:5a:83:08:20:6f:65:d6:43:ab:a7:
        0a:2c:d9:72:dd:6a:c6:a7:d3:a0:d1:d9:3f:56:f8:7a:04:4a:
        98:72:b2:56:43:ed:25:76:8d:28:34:bf:a8:82:91:90:66:34:
        ca:09:32:19:24:42:c3:c2:b3:8d:99:61:b5:2b:37:6a:0d:f8:
        ad:da:31:f0:c3:e2:86:ba:15:9d:f6:85:b7:00:21:17:84:b5:
        45:2b:ea:56:44:87:a1:a7:54:c6:22:58:85:51:44:4e:ae:c5:
        46:3b:2e:3d:d3:ee:17:c9:63:f1:d0:30:fc:6e:b6:bd:e8:1a:
        61:75:a4:99:00:ce:10:44:f6:b0:af:70:58:80:a1:9b:80:15:
        3a:4a:68:92:c9:09:8b:15:15:63:0f:5b:44:49:58:db:b8:18:
        7f:11:93:98:ec:ee:cf:f4:c2:53:b3:04:cc:bb:ac:00:c9:81:
        59:5b:f1:fa:20:a2:bf:49:20:00:b0:22:82:b9:61:cf:2b:aa:
        4b:2f:76:aa:0b:ec:8b:d2:d7:c9:b2:f1:33:4d:2d:a1:d9:d8:
        04:4b:b8:4d:5d:f0:b9:e2:8a:f6:5d:2e:19:00:41:b2:f7:35:
        b0:66:97:70:6b:bb:1d:c1:c0:a7:eb:47:75:77:22:a6:6f:5b:
        86:5a:56:e3
-----BEGIN CERTIFICATE-----
MIIEETCCAvmgAwIBAgIBAjANBgkqhkiG9w0BAQsFADCBkzELMAkGA1UEBhMCRlIx
DzANBgNVBAgMBlJhZGl1czESMBAGA1UEBwwJU29tZXdoZXJlMRUwEwYDVQQKDAxF
eGFtcGxlIEluYy4xIDAeBgkqhkiG9w0BCQEWEWFkbWluQGV4YW1wbGUub3JnMSYw
JAYDVQQDDB1FeGFtcGxlIENlcnRpZmljYXRlIEF1dGhvcml0eTAeFw0yNDAzMDYw
NzE3MDFaFw0zNDAxMTMwNzE3MDFaMHExCzAJBgNVBAYTAkZSMQ8wDQYDVQQIDAZS
YWRpdXMxFTATBgNVBAoMDEV4YW1wbGUgSW5jLjEZMBcGA1UEAwwQdXNlckBleGFt
cGxlLm9yZzEfMB0GCSqGSIb3DQEJARYQdXNlckBleGFtcGxlLm9yZzCCASIwDQYJ
KoZIhvcNAQEBBQADggEPADCCAQoCggEBAMP54t9ELjzvXlFO7TffqwwyNmtm83KY
a5nMKaVINQVSrM3Tf5IIaFwI1xjb40ENTi3GGKByDI1f3e8QSzDYiE5SvwBKyjqQ
hUcYE1z0mSmuhtlfi6FN7GxRDqBlODd95Il52wUQtycr5hyixF+kC5kn9ZzsIo/8
4GUJZ0QOPW0GWXeSDUCt/KXz+UBZTd31HRjpKkQ+kGgJFqvt+tJXW4imkwS9dvuC
JcNPSCvVRzACkwqqqkieml5qrDdyenQZNSTnhS5Cd604mzRX+ndcJPjO7JiC++0a
dBLIAoRatm0Kbk4zds/ZbhnBSYu7GZIwXWSiaKxXYTSxVMA9RE7BCNcCAwEAAaOB
kDCBjTATBgNVHSUEDDAKBggrBgEFBQcDAjA2BgNVHR8ELzAtMCugKaAnhiVodHRw
Oi8vd3d3LmV4YW1wbGUuY29tL2V4YW1wbGVfY2EuY3JsMB0GA1UdDgQWBBT9UJ63
Uk08ihOrqeKCSRswx0IeTjAfBgNVHSMEGDAWgBRaWcbPb+7DBll7hXECUQ1MMwLx
EjANBgkqhkiG9w0BAQsFAAOCAQEASlYsVaQirMJagwggb2XWQ6unCizZct1qxqfT
oNHZP1b4egRKmHKyVkPtJXaNKDS/qIKRkGY0ygkyGSRCw8KzjZlhtSs3ag34rdox
8MPihroVnfaFtwAhF4S1RSvqVkSHoadUxiJYhVFETq7FRjsuPdPuF8lj8dAw/G62
vegaYXWkmQDOEET2sK9wWIChm4AVOkpokskJixUVYw9bRElY27gYfxGTmOzuz/TC
U7MEzLusAMmBWVvx+iCiv0kgALAigrlhzyuqSy92qgvsi9LXybLxM00todnYBEu4
TV3wueKK9l0uGQBBsvc1sGaXcGu7HcHAp+tHdXcipm9bhlpW4w==
-----END CERTIFICATE-----
