Certificate:
    Data:
        Version: 3 (0x2)
        Serial Number: 2 (0x2)
        Signature Algorithm: sha256WithRSAEncryption
        Issuer: C=TW, ST=Taiwan, L=Taipei, O=TDC-QA/emailAddress=admin@tdcqa.local, CN=tdcqa.local
        Validity
            Not Before: Mar 12 03:35:33 2024 GMT
            Not After : Jan 19 03:35:33 2034 GMT
        Subject: C=TW, ST=Taiwan, O=TDC-QA, CN=user@tdcqa.local/emailAddress=user@tdcqa.local
        Subject Public Key Info:
            Public Key Algorithm: rsaEncryption
                Public-Key: (2048 bit)
                Modulus:
                    00:bf:eb:7c:23:91:6c:5d:91:1a:dd:b5:f6:15:ad:
                    47:be:2c:7e:ec:50:91:af:ae:e6:d0:b6:29:59:fe:
                    76:26:3a:fc:8a:6a:b8:13:f0:d9:2b:53:b1:b2:98:
                    65:08:c2:db:6c:48:84:8b:63:6c:25:9e:ae:3f:2b:
                    10:77:f7:20:69:38:4a:93:dc:a0:c6:f5:20:6d:82:
                    23:cd:69:53:d6:75:24:70:70:ba:f5:51:45:03:d4:
                    3e:19:b2:4f:36:1a:ce:9d:a4:56:2f:9e:b7:b0:71:
                    1c:80:a1:c3:fe:7f:b0:81:46:d2:07:de:c3:27:d3:
                    26:17:37:9a:39:71:56:b1:1c:0a:b9:b4:32:4c:58:
                    19:f9:35:0f:b3:59:6b:64:04:bb:ed:03:59:4c:c7:
                    fe:9f:dd:f9:c8:ff:45:2d:f9:a6:fd:82:d2:9e:29:
                    52:4e:a8:6b:b1:45:dc:fd:5c:9b:a7:88:73:a8:f9:
                    ec:52:8b:f4:4b:71:56:29:6e:c4:75:71:27:37:bf:
                    7b:d7:eb:07:da:38:c3:d3:c8:f5:39:d2:ae:46:5f:
                    99:c7:9c:da:18:cf:fa:9e:bd:b9:e0:2a:b7:65:1b:
                    ee:75:3e:7b:bb:b8:05:62:8f:bf:78:87:3b:a1:20:
                    5a:27:19:60:ff:77:b1:25:2f:26:d5:de:b1:09:d2:
                    2e:81
                Exponent: 65537 (0x10001)
        X509v3 extensions:
            X509v3 Extended Key Usage: 
                TLS Web Client Authentication
            X509v3 CRL Distribution Points: 
                Full Name:
                  URI:http://www.example.com/example_ca.crl
            X509v3 Subject Key Identifier: 
                B6:5E:FF:BD:91:93:7E:88:8B:2F:09:84:89:B6:D0:1B:4E:EA:F5:00
            X509v3 Authority Key Identifier: 
                84:28:1C:63:5C:7E:69:57:52:52:25:8E:00:1A:7A:EB:DF:06:A4:D7
    Signature Algorithm: sha256WithRSAEncryption
    Signature Value:
        1e:7a:a1:de:08:99:0a:24:a9:ef:db:62:14:51:77:8b:c4:ba:
        1f:c9:2e:17:a3:c6:62:05:90:dc:f5:af:9a:12:e4:27:2e:3c:
        91:f8:33:0c:39:57:65:56:c3:a1:4f:8c:80:e3:a3:35:5e:86:
        f3:10:fa:1e:6c:80:9c:4d:8e:a5:71:56:e1:1b:8a:83:66:e0:
        61:ef:58:25:53:9e:f8:d8:02:c8:7f:2f:97:2a:92:cc:59:d5:
        b5:c6:92:b2:ec:7b:76:a0:09:c7:5a:ed:c7:03:0c:a8:76:98:
        8d:cb:94:27:da:e0:d0:c1:b2:6e:d8:0f:36:71:c7:22:db:9c:
        a1:7f:be:f2:a1:87:84:30:59:38:3d:3e:af:4d:09:ad:df:19:
        60:28:0b:bd:88:8d:e1:74:84:fb:79:a3:33:bd:ec:ac:e1:76:
        59:ed:74:f8:af:f9:84:4b:06:87:67:51:fb:70:2c:53:cf:da:
        04:09:f5:29:65:45:d6:00:f9:58:54:70:69:7a:2d:5c:09:3b:
        78:cb:6d:35:71:be:28:f8:bb:ae:15:47:18:b3:cd:eb:a2:4e:
        f9:28:01:76:41:ca:2d:36:33:2b:9b:75:1a:6e:a5:de:81:ec:
        16:e2:68:b6:4a:20:a3:be:90:3c:53:e2:9c:15:32:47:d9:e8:
        4c:6d:e9:0d
-----BEGIN CERTIFICATE-----
MIID7zCCAtegAwIBAgIBAjANBgkqhkiG9w0BAQsFADB4MQswCQYDVQQGEwJUVzEP
MA0GA1UECAwGVGFpd2FuMQ8wDQYDVQQHDAZUYWlwZWkxDzANBgNVBAoMBlREQy1R
QTEgMB4GCSqGSIb3DQEJARYRYWRtaW5AdGRjcWEubG9jYWwxFDASBgNVBAMMC3Rk
Y3FhLmxvY2FsMB4XDTI0MDMxMjAzMzUzM1oXDTM0MDExOTAzMzUzM1owazELMAkG
A1UEBhMCVFcxDzANBgNVBAgMBlRhaXdhbjEPMA0GA1UECgwGVERDLVFBMRkwFwYD
VQQDDBB1c2VyQHRkY3FhLmxvY2FsMR8wHQYJKoZIhvcNAQkBFhB1c2VyQHRkY3Fh
LmxvY2FsMIIBIjANBgkqhkiG9w0BAQEFAAOCAQ8AMIIBCgKCAQEAv+t8I5FsXZEa
3bX2Fa1Hvix+7FCRr67m0LYpWf52Jjr8imq4E/DZK1OxsphlCMLbbEiEi2NsJZ6u
PysQd/cgaThKk9ygxvUgbYIjzWlT1nUkcHC69VFFA9Q+GbJPNhrOnaRWL563sHEc
gKHD/n+wgUbSB97DJ9MmFzeaOXFWsRwKubQyTFgZ+TUPs1lrZAS77QNZTMf+n935
yP9FLfmm/YLSnilSTqhrsUXc/Vybp4hzqPnsUov0S3FWKW7EdXEnN7971+sH2jjD
08j1OdKuRl+Zx5zaGM/6nr254Cq3ZRvudT57u7gFYo+/eIc7oSBaJxlg/3exJS8m
1d6xCdIugQIDAQABo4GQMIGNMBMGA1UdJQQMMAoGCCsGAQUFBwMCMDYGA1UdHwQv
MC0wK6ApoCeGJWh0dHA6Ly93d3cuZXhhbXBsZS5jb20vZXhhbXBsZV9jYS5jcmww
HQYDVR0OBBYEFLZe/72Rk36Iiy8JhIm20BtO6vUAMB8GA1UdIwQYMBaAFIQoHGNc
fmlXUlIljgAaeuvfBqTXMA0GCSqGSIb3DQEBCwUAA4IBAQAeeqHeCJkKJKnv22IU
UXeLxLofyS4Xo8ZiBZDc9a+aEuQnLjyR+DMMOVdlVsOhT4yA46M1XobzEPoebICc
TY6lcVbhG4qDZuBh71glU5742ALIfy+XKpLMWdW1xpKy7Ht2oAnHWu3HAwyodpiN
y5Qn2uDQwbJu2A82ccci25yhf77yoYeEMFk4PT6vTQmt3xlgKAu9iI3hdIT7eaMz
veys4XZZ7XT4r/mESwaHZ1H7cCxTz9oECfUpZUXWAPlYVHBpei1cCTt4y201cb4o
+LuuFUcYs83rok75KAF2QcotNjMrm3UabqXegewW4mi2SiCjvpA8U+KcFTJH2ehM
bekN
-----END CERTIFICATE-----
