Certificate:
    Data:
        Version: 3 (0x2)
        Serial Number: 1 (0x1)
        Signature Algorithm: sha256WithRSAEncryption
        Issuer: C=TW, ST=Ruckus, L=TDC, O=QA/emailAddress=admin@wifi.alto, CN=TDC alto Wi-Fi QA
        Validity
            Not Before: May 20 19:20:06 2021 GMT
            Not After : Jul 19 19:20:06 2021 GMT
        Subject: C=TW, ST=Ruckus, O=QA, CN=Example Server Certificate/emailAddress=admin@wifi.alto
        Subject Public Key Info:
            Public Key Algorithm: rsaEncryption
                RSA Public-Key: (2048 bit)
                Modulus:
                    00:ac:b4:71:30:32:91:56:98:1f:a0:58:5d:6d:78:
                    2b:d1:cb:a4:7c:5a:7b:dd:72:87:0a:84:35:41:a5:
                    ce:97:bd:0a:a7:9d:92:4b:43:41:07:d2:b5:30:82:
                    3d:4e:15:03:55:fc:c2:c4:8b:a3:06:09:38:9a:23:
                    61:50:16:c2:5d:3f:0e:ce:c9:a1:1d:47:4c:1b:ff:
                    85:90:89:08:49:d9:40:0c:75:08:95:58:26:17:ca:
                    86:fb:0e:07:06:ad:e9:e6:bb:b9:ce:77:b5:72:81:
                    3a:d6:18:be:0e:3d:70:80:56:6b:87:0a:8b:0e:f8:
                    fc:15:72:02:c4:6e:3c:34:6b:c1:7d:35:cd:de:87:
                    fe:3c:19:8f:81:da:0e:ce:64:36:f8:14:a0:aa:bf:
                    df:d4:16:48:47:e1:09:a0:1a:0d:1d:6f:80:36:c1:
                    ba:f2:14:b0:ce:d4:c3:ed:a5:ff:75:e7:57:49:bf:
                    ff:85:dd:d9:3e:7b:69:ab:86:76:3a:63:41:cb:79:
                    83:6f:46:89:ab:26:f2:cd:7f:dd:b9:e7:cd:32:1a:
                    e4:35:7d:12:5f:e8:29:a6:bc:16:b3:28:c2:1d:64:
                    be:ac:dd:38:f5:b2:14:12:a7:6e:7e:6a:ac:7f:64:
                    b0:70:b2:76:9c:f6:e1:21:38:e1:3a:6c:15:6e:37:
                    22:8f
                Exponent: 65537 (0x10001)
        X509v3 extensions:
            X509v3 Extended Key Usage: 
                TLS Web Server Authentication
            X509v3 CRL Distribution Points: 

                Full Name:
                  URI:http://www.example.com/example_ca.crl

            X509v3 Certificate Policies: 
                Policy: 1.3.6.1.4.1.40808.1.3.2

    Signature Algorithm: sha256WithRSAEncryption
         9c:fb:20:b4:49:d1:10:35:b9:98:61:da:57:84:db:0d:90:33:
         9f:ad:6f:0d:e4:78:6c:72:1b:32:54:04:b7:bf:e5:cf:14:d0:
         0d:f7:0e:55:cf:78:ca:bd:14:b3:59:15:79:b6:44:85:3f:a2:
         d7:61:06:aa:dc:3c:26:e1:e1:65:36:99:a2:09:65:cc:44:78:
         c2:68:a2:50:7d:4e:95:85:46:40:55:d9:21:ec:64:6f:53:93:
         d3:c4:f1:9d:cf:00:1d:25:44:5c:59:2e:3b:84:90:36:f5:31:
         9e:a4:36:e8:e0:0d:a6:61:66:8b:09:bb:5d:27:95:d7:7c:d9:
         a6:32:d9:a8:42:47:6b:00:7d:01:71:72:84:61:7a:60:f3:4b:
         ff:1a:bc:a7:f2:92:b5:81:ce:8c:e1:7f:6b:ad:8b:7b:91:3f:
         76:a6:10:07:e3:03:9f:52:62:45:49:34:32:34:b9:15:78:1d:
         f6:e7:6e:87:32:91:d2:35:be:50:f5:8d:e3:be:62:d3:f6:2f:
         e9:22:7b:43:d9:ce:9b:b1:e1:76:91:a7:2f:1e:e4:1a:a3:da:
         fb:a7:8a:3a:99:9d:ae:41:c3:48:26:0d:94:5b:6e:72:31:34:
         d2:db:cf:31:75:4d:6c:ae:25:33:a3:37:8d:f7:a5:e3:33:e8:
         28:47:35:b5
-----BEGIN CERTIFICATE-----
MIIDyTCCArGgAwIBAgIBATANBgkqhkiG9w0BAQsFADB1MQswCQYDVQQGEwJUVzEP
MA0GA1UECAwGUnVja3VzMQwwCgYDVQQHDANUREMxCzAJBgNVBAoMAlFBMR4wHAYJ
KoZIhvcNAQkBFg9hZG1pbkB3aWZpLmFsdG8xGjAYBgNVBAMMEVREQyBhbHRvIFdp
LUZpIFFBMB4XDTIxMDUyMDE5MjAwNloXDTIxMDcxOTE5MjAwNlowcDELMAkGA1UE
BhMCVFcxDzANBgNVBAgMBlJ1Y2t1czELMAkGA1UECgwCUUExIzAhBgNVBAMMGkV4
YW1wbGUgU2VydmVyIENlcnRpZmljYXRlMR4wHAYJKoZIhvcNAQkBFg9hZG1pbkB3
aWZpLmFsdG8wggEiMA0GCSqGSIb3DQEBAQUAA4IBDwAwggEKAoIBAQCstHEwMpFW
mB+gWF1teCvRy6R8WnvdcocKhDVBpc6XvQqnnZJLQ0EH0rUwgj1OFQNV/MLEi6MG
CTiaI2FQFsJdPw7OyaEdR0wb/4WQiQhJ2UAMdQiVWCYXyob7DgcGrenmu7nOd7Vy
gTrWGL4OPXCAVmuHCosO+PwVcgLEbjw0a8F9Nc3eh/48GY+B2g7OZDb4FKCqv9/U
FkhH4QmgGg0db4A2wbryFLDO1MPtpf9151dJv/+F3dk+e2mrhnY6Y0HLeYNvRomr
JvLNf925580yGuQ1fRJf6CmmvBazKMIdZL6s3Tj1shQSp25+aqx/ZLBwsnac9uEh
OOE6bBVuNyKPAgMBAAGjaTBnMBMGA1UdJQQMMAoGCCsGAQUFBwMBMDYGA1UdHwQv
MC0wK6ApoCeGJWh0dHA6Ly93d3cuZXhhbXBsZS5jb20vZXhhbXBsZV9jYS5jcmww
GAYDVR0gBBEwDzANBgsrBgEEAYK+aAEDAjANBgkqhkiG9w0BAQsFAAOCAQEAnPsg
tEnREDW5mGHaV4TbDZAzn61vDeR4bHIbMlQEt7/lzxTQDfcOVc94yr0Us1kVebZE
hT+i12EGqtw8JuHhZTaZogllzER4wmiiUH1OlYVGQFXZIexkb1OT08Txnc8AHSVE
XFkuO4SQNvUxnqQ26OANpmFmiwm7XSeV13zZpjLZqEJHawB9AXFyhGF6YPNL/xq8
p/KStYHOjOF/a62Le5E/dqYQB+MDn1JiRUk0MjS5FXgd9uduhzKR0jW+UPWN475i
0/Yv6SJ7Q9nOm7HhdpGnLx7kGqPa+6eKOpmdrkHDSCYNlFtucjE00tvPMXVNbK4l
M6M3jfel4zPoKEc1tQ==
-----END CERTIFICATE-----
