Certificate:
    Data:
        Version: 3 (0x2)
        Serial Number: 1 (0x1)
        Signature Algorithm: sha256WithRSAEncryption
        Issuer: C=FR, ST=Radius, L=Somewhere, O=Example Inc./emailAddress=admin@example.org, CN=Example Certificate Authority
        Validity
            Not Before: Nov 24 09:39:07 2021 GMT
            Not After : Jan 23 09:39:07 2022 GMT
        Subject: C=FR, ST=Radius, O=Example Inc., CN=Example Server Certificate/emailAddress=admin@example.org
        Subject Public Key Info:
            Public Key Algorithm: rsaEncryption
                RSA Public-Key: (2048 bit)
                Modulus:
                    00:d9:fa:9f:16:52:03:df:e5:45:70:a8:c6:15:11:
                    e4:df:27:6c:cb:4e:03:b2:75:83:66:fe:8a:8b:7a:
                    3b:f1:b4:b5:9c:b9:13:9a:81:58:c8:7e:b4:e5:4a:
                    7f:46:5e:c5:2d:f8:23:b8:94:38:15:dc:4f:88:e3:
                    e6:41:84:a0:42:7b:eb:01:be:44:89:ce:21:3e:74:
                    50:02:32:75:9a:5a:7b:95:3a:ca:d8:d9:9b:b5:21:
                    59:88:6c:88:d1:24:ca:de:a8:02:3c:f7:2c:f7:70:
                    77:77:bc:86:21:85:1a:48:00:82:58:62:df:dd:ad:
                    ed:df:4a:ee:bf:51:ee:a6:3c:17:e1:16:49:22:92:
                    01:17:4b:8a:27:86:5e:ff:98:ec:b1:a9:4e:e9:af:
                    de:26:f2:85:1d:56:35:64:1c:57:4a:0c:7b:f5:b6:
                    1c:10:c8:e5:2b:5c:0b:5f:58:34:ad:7b:5a:1a:5c:
                    c4:e3:01:68:1a:09:8e:0f:0b:d5:46:91:95:ef:b6:
                    f0:d2:05:3b:ee:f6:3c:a5:31:69:8e:62:a0:d0:9b:
                    4e:b2:e9:03:e5:00:46:94:ff:ed:c1:9a:26:b0:8c:
                    be:c6:6d:19:ba:bc:1c:d5:55:28:ae:a2:63:75:62:
                    e3:e9:b0:5f:5d:b1:51:c0:fd:31:55:dc:01:56:1d:
                    63:65
                Exponent: 65537 (0x10001)
        X509v3 extensions:
            X509v3 Extended Key Usage:
                TLS Web Server Authentication
            X509v3 CRL Distribution Points:

                Full Name:
                  URI:http://www.example.com/example_ca.crl

            X509v3 Certificate Policies:
                Policy: 1.3.6.1.4.1.40808.1.3.2

    Signature Algorithm: sha256WithRSAEncryption
         38:96:54:d1:f8:44:2d:d0:da:15:92:ec:dc:8f:1b:4e:04:b6:
         dd:81:9e:72:f8:52:d7:63:be:4e:b8:ce:94:ac:0c:d1:7f:d2:
         7f:6a:7d:1e:94:d0:1e:d9:c5:8a:23:ad:b6:33:d6:05:5f:df:
         ab:ab:f3:9e:53:ed:28:06:e6:3b:7b:6b:8f:f0:52:3b:2f:c7:
         46:58:f5:05:47:fd:00:2f:af:cd:5d:44:ba:1d:7f:31:63:72:
         17:7e:cd:47:9f:09:a0:12:9a:c5:2d:14:22:59:3c:e5:6b:cb:
         c2:d5:49:4e:3b:dc:1c:c7:c4:79:a1:7a:e5:9c:e0:35:a1:72:
         24:b8:38:35:16:fd:ea:d7:bc:df:1e:e8:a7:24:19:63:38:db:
         3c:73:4d:61:fa:ae:28:94:85:11:17:86:c5:50:99:17:a8:f2:
         4c:f0:43:3a:0a:cc:5a:0e:7f:d6:fc:a0:37:41:46:99:61:f2:
         f1:21:e5:c6:f0:af:d1:46:d2:0c:79:f0:f2:10:61:52:7a:72:
         61:a4:df:e0:a9:0c:e9:f3:8e:8a:11:40:6d:b0:fc:80:6f:c1:
         3e:c4:d0:41:86:33:31:4f:69:ef:fe:23:26:51:1e:14:88:36:
         24:53:f5:e1:0d:63:fe:96:c5:a2:1d:c1:83:c2:a2:b9:c9:94:
         57:66:25:4d
-----BEGIN CERTIFICATE-----
MIID9DCCAtygAwIBAgIBATANBgkqhkiG9w0BAQsFADCBkzELMAkGA1UEBhMCRlIx
DzANBgNVBAgMBlJhZGl1czESMBAGA1UEBwwJU29tZXdoZXJlMRUwEwYDVQQKDAxF
eGFtcGxlIEluYy4xIDAeBgkqhkiG9w0BCQEWEWFkbWluQGV4YW1wbGUub3JnMSYw
JAYDVQQDDB1FeGFtcGxlIENlcnRpZmljYXRlIEF1dGhvcml0eTAeFw0yMTExMjQw
OTM5MDdaFw0yMjAxMjMwOTM5MDdaMHwxCzAJBgNVBAYTAkZSMQ8wDQYDVQQIDAZS
YWRpdXMxFTATBgNVBAoMDEV4YW1wbGUgSW5jLjEjMCEGA1UEAwwaRXhhbXBsZSBT
ZXJ2ZXIgQ2VydGlmaWNhdGUxIDAeBgkqhkiG9w0BCQEWEWFkbWluQGV4YW1wbGUu
b3JnMIIBIjANBgkqhkiG9w0BAQEFAAOCAQ8AMIIBCgKCAQEA2fqfFlID3+VFcKjG
FRHk3ydsy04DsnWDZv6Ki3o78bS1nLkTmoFYyH605Up/Rl7FLfgjuJQ4FdxPiOPm
QYSgQnvrAb5Eic4hPnRQAjJ1mlp7lTrK2NmbtSFZiGyI0STK3qgCPPcs93B3d7yG
IYUaSACCWGLf3a3t30ruv1HupjwX4RZJIpIBF0uKJ4Ze/5jssalO6a/eJvKFHVY1
ZBxXSgx79bYcEMjlK1wLX1g0rXtaGlzE4wFoGgmODwvVRpGV77bw0gU77vY8pTFp
jmKg0JtOsukD5QBGlP/twZomsIy+xm0Zurwc1VUorqJjdWLj6bBfXbFRwP0xVdwB
Vh1jZQIDAQABo2kwZzATBgNVHSUEDDAKBggrBgEFBQcDATA2BgNVHR8ELzAtMCug
KaAnhiVodHRwOi8vd3d3LmV4YW1wbGUuY29tL2V4YW1wbGVfY2EuY3JsMBgGA1Ud
IAQRMA8wDQYLKwYBBAGCvmgBAwIwDQYJKoZIhvcNAQELBQADggEBADiWVNH4RC3Q
2hWS7NyPG04Ett2BnnL4Utdjvk64zpSsDNF/0n9qfR6U0B7ZxYojrbYz1gVf36ur
855T7SgG5jt7a4/wUjsvx0ZY9QVH/QAvr81dRLodfzFjchd+zUefCaASmsUtFCJZ
POVry8LVSU473BzHxHmheuWc4DWhciS4ODUW/erXvN8e6KckGWM42zxzTWH6riiU
hREXhsVQmReo8kzwQzoKzFoOf9b8oDdBRplh8vEh5cbwr9FG0gx58PIQYVJ6cmGk
3+CpDOnzjooRQG2w/IBvwT7E0EGGMzFPae/+IyZRHhSINiRT9eENY/6WxaIdwYPC
ornJlFdmJU0=
-----END CERTIFICATE-----

