Certificate:
    Data:
        Version: 3 (0x2)
        Serial Number: 1 (0x1)
        Signature Algorithm: sha256WithRSAEncryption
        Issuer: C=FR, ST=Radius, L=Somewhere, O=Example Inc./emailAddress=admin@example.org, CN=Example Certificate Authority
        Validity
            Not Before: Jun 24 06:53:35 2024 GMT
            Not After : Feb 14 06:53:35 2026 GMT
        Subject: C=FR, ST=Radius, O=Example Inc., CN=Example Server Certificate/emailAddress=admin@example.org
        Subject Public Key Info:
            Public Key Algorithm: rsaEncryption
                RSA Public-Key: (2048 bit)
                Modulus:
                    00:bf:77:68:2c:1a:28:a9:a8:35:2b:87:6c:b9:65:
                    5a:36:c0:ff:ae:90:1f:d9:bf:df:fb:64:60:48:3d:
                    b3:98:9e:62:8e:92:2f:e5:68:8e:80:4a:e1:93:fc:
                    37:27:99:7c:b3:66:22:02:d7:0b:67:a6:7e:63:98:
                    b3:3d:f4:56:0b:9a:a5:a4:ef:96:b2:b9:07:79:fa:
                    34:e8:50:1c:98:a8:81:4e:c5:55:89:a3:6a:02:22:
                    7f:e2:4e:cd:23:94:70:b6:ab:e7:4d:fc:2d:83:75:
                    fd:65:28:11:c0:41:b7:83:2f:e2:b5:b1:f0:b6:28:
                    01:2d:36:98:81:1e:43:ac:61:3d:a8:26:ce:f0:e2:
                    8f:d7:c4:a0:19:1c:79:31:7e:88:9c:a9:50:19:e2:
                    a3:dd:fd:02:bf:9f:41:da:81:c0:b5:db:71:2a:51:
                    14:a1:c9:cf:ec:11:24:f9:ef:c7:88:77:9c:be:f2:
                    00:7b:a6:41:67:4d:02:e1:c7:b5:01:1e:ee:db:ff:
                    7b:7c:2c:d5:19:89:1b:ba:bc:84:63:3b:ed:9c:59:
                    87:3f:fc:7c:4f:1b:80:8c:52:64:66:5c:b4:2c:f7:
                    3e:f3:24:18:11:39:79:b3:79:fd:b1:39:61:e6:70:
                    ac:86:fd:a2:81:5b:b3:29:a3:d5:d0:ec:ec:28:3e:
                    66:23
                Exponent: 65537 (0x10001)
        X509v3 extensions:
            X509v3 Extended Key Usage: 
                TLS Web Server Authentication
            X509v3 CRL Distribution Points: 

                Full Name:
                  URI:http://www.example.com/example_ca.crl

    Signature Algorithm: sha256WithRSAEncryption
         35:d5:f2:d3:23:6a:c0:cc:f0:eb:9f:dd:92:3f:e7:1b:23:8c:
         05:47:5f:f0:ec:65:ce:28:d0:cb:10:00:50:1f:e2:6b:60:f3:
         62:a4:1e:e8:03:74:de:ba:e0:13:ab:f9:27:4f:95:31:7e:46:
         c3:b4:9f:19:26:eb:81:ac:b5:67:73:3a:b3:1c:3b:e3:8f:51:
         25:46:f5:06:c8:e0:42:42:e8:a7:d0:fd:dd:b6:b4:a6:b2:a3:
         f3:09:ff:7d:58:00:5e:0c:81:5f:b6:99:d4:85:c6:19:ef:9f:
         4a:26:75:15:89:ea:61:5f:af:7e:c1:f2:73:91:a2:87:62:7d:
         5b:41:2e:36:ee:19:9a:b2:8e:e5:fd:e0:d7:0f:09:bd:ab:0a:
         2b:9c:43:19:54:9e:b3:69:5a:97:24:c4:5b:d1:88:d4:b5:33:
         bd:37:2e:19:99:b4:17:ae:88:6a:cf:98:10:54:92:d2:0d:97:
         3c:81:79:b6:22:68:43:2c:39:33:20:aa:5d:e9:a6:f9:0f:b0:
         09:56:13:63:a0:05:d3:22:76:dd:4f:f0:b6:79:1b:59:97:7e:
         8c:77:fa:f5:d6:15:35:f6:d0:6f:38:14:3b:0c:e4:64:9e:38:
         13:73:59:af:bb:e9:ad:6a:85:5f:b8:55:4f:f3:1f:02:c9:6d:
         52:76:7e:19
-----BEGIN CERTIFICATE-----
MIID2jCCAsKgAwIBAgIBATANBgkqhkiG9w0BAQsFADCBkzELMAkGA1UEBhMCRlIx
DzANBgNVBAgMBlJhZGl1czESMBAGA1UEBwwJU29tZXdoZXJlMRUwEwYDVQQKDAxF
eGFtcGxlIEluYy4xIDAeBgkqhkiG9w0BCQEWEWFkbWluQGV4YW1wbGUub3JnMSYw
JAYDVQQDDB1FeGFtcGxlIENlcnRpZmljYXRlIEF1dGhvcml0eTAeFw0yNDA2MjQw
NjUzMzVaFw0yNjAyMTQwNjUzMzVaMHwxCzAJBgNVBAYTAkZSMQ8wDQYDVQQIDAZS
YWRpdXMxFTATBgNVBAoMDEV4YW1wbGUgSW5jLjEjMCEGA1UEAwwaRXhhbXBsZSBT
ZXJ2ZXIgQ2VydGlmaWNhdGUxIDAeBgkqhkiG9w0BCQEWEWFkbWluQGV4YW1wbGUu
b3JnMIIBIjANBgkqhkiG9w0BAQEFAAOCAQ8AMIIBCgKCAQEAv3doLBooqag1K4ds
uWVaNsD/rpAf2b/f+2RgSD2zmJ5ijpIv5WiOgErhk/w3J5l8s2YiAtcLZ6Z+Y5iz
PfRWC5qlpO+WsrkHefo06FAcmKiBTsVViaNqAiJ/4k7NI5RwtqvnTfwtg3X9ZSgR
wEG3gy/itbHwtigBLTaYgR5DrGE9qCbO8OKP18SgGRx5MX6InKlQGeKj3f0Cv59B
2oHAtdtxKlEUocnP7BEk+e/HiHecvvIAe6ZBZ00C4ce1AR7u2/97fCzVGYkburyE
YzvtnFmHP/x8TxuAjFJkZly0LPc+8yQYETl5s3n9sTlh5nCshv2igVuzKaPV0Ozs
KD5mIwIDAQABo08wTTATBgNVHSUEDDAKBggrBgEFBQcDATA2BgNVHR8ELzAtMCug
KaAnhiVodHRwOi8vd3d3LmV4YW1wbGUuY29tL2V4YW1wbGVfY2EuY3JsMA0GCSqG
SIb3DQEBCwUAA4IBAQA11fLTI2rAzPDrn92SP+cbI4wFR1/w7GXOKNDLEABQH+Jr
YPNipB7oA3TeuuATq/knT5UxfkbDtJ8ZJuuBrLVnczqzHDvjj1ElRvUGyOBCQuin
0P3dtrSmsqPzCf99WABeDIFftpnUhcYZ759KJnUViephX69+wfJzkaKHYn1bQS42
7hmaso7l/eDXDwm9qwornEMZVJ6zaVqXJMRb0YjUtTO9Ny4ZmbQXrohqz5gQVJLS
DZc8gXm2ImhDLDkzIKpd6ab5D7AJVhNjoAXTInbdT/C2eRtZl36Md/r11hU19tBv
OBQ7DORknjgTc1mvu+mtaoVfuFVP8x8CyW1Sdn4Z
-----END CERTIFICATE-----
