Certificate:
    Data:
        Version: 3 (0x2)
        Serial Number: 2 (0x2)
        Signature Algorithm: sha256WithRSAEncryption
        Issuer: C=FR, ST=Radius, L=Somewhere, O=Example Inc./emailAddress=admin@example.org, CN=Example Certificate Authority
        Validity
            Not Before: Jun 24 06:53:35 2024 GMT
            Not After : Feb 14 06:53:35 2026 GMT
        Subject: C=FR, ST=Radius, O=Example Inc., CN=user@example.org/emailAddress=user@example.org
        Subject Public Key Info:
            Public Key Algorithm: rsaEncryption
                RSA Public-Key: (2048 bit)
                Modulus:
                    00:bd:c1:12:01:00:53:58:c6:85:3b:11:52:c9:1b:
                    47:27:e1:1c:98:b3:6a:d0:66:57:98:8f:45:db:e5:
                    9a:3e:a3:e5:b3:e8:b4:08:a0:35:0f:e5:46:76:c0:
                    b2:f2:85:cc:69:3d:26:73:f0:6f:31:7f:c6:95:34:
                    2c:75:c1:14:cc:d7:36:22:d9:6a:6b:60:4d:cc:10:
                    f0:10:28:2d:81:d0:9d:da:78:ce:43:6b:58:fd:d0:
                    e9:10:13:42:44:2e:f7:ab:db:9f:17:e0:d3:70:a2:
                    f7:cb:de:35:a4:52:ba:d1:cc:85:c0:24:a9:4d:8c:
                    a7:a6:56:7d:91:38:e0:15:20:09:83:c4:98:3c:2d:
                    65:fb:11:a5:08:73:7e:38:59:53:36:bf:3d:e9:7a:
                    de:d4:b6:03:43:98:6a:fc:e1:04:f5:cb:ce:30:6d:
                    b5:ed:d5:c3:89:74:f8:23:4b:5a:9f:e7:38:78:c5:
                    49:10:7c:ff:38:3b:94:38:e1:82:77:66:8b:ab:50:
                    2a:c6:bc:5d:b7:5d:29:cd:6c:ae:ef:b5:5d:db:8e:
                    5b:33:f5:cd:bf:a9:e8:9c:14:6d:26:8b:97:5f:ee:
                    a5:55:8d:c6:32:35:15:55:5d:5f:ac:ab:0f:0a:d4:
                    87:64:7d:9c:ff:8a:9f:9a:a6:80:eb:9a:64:e7:82:
                    c1:3f
                Exponent: 65537 (0x10001)
        X509v3 extensions:
            X509v3 Extended Key Usage: 
                TLS Web Client Authentication
            X509v3 CRL Distribution Points: 

                Full Name:
                  URI:http://www.example.com/example_ca.crl

    Signature Algorithm: sha256WithRSAEncryption
         9b:d8:53:91:54:0c:b3:4d:fd:fa:36:58:eb:65:b1:74:36:bf:
         32:5c:e7:32:c2:fd:10:b0:36:3a:b1:ff:fa:bc:74:b7:6f:1c:
         23:e0:63:45:1c:44:af:fe:06:35:7c:00:4b:65:0d:1f:40:36:
         fa:2f:ee:59:a1:c6:47:08:8e:d5:cb:88:f7:35:ca:23:2e:d6:
         66:07:7d:0b:d0:fe:69:ae:00:d0:a4:81:61:22:d5:ce:97:72:
         b2:e4:e7:3b:2a:e1:3d:89:33:35:c4:68:49:83:53:12:b9:40:
         d0:38:7c:c4:f4:51:36:d1:c4:18:56:66:c4:46:d2:d9:4b:6c:
         7a:79:25:6a:40:de:22:26:81:1b:08:a5:ee:d1:7f:d2:18:db:
         84:28:ac:a2:c7:bf:ef:e4:e1:8b:32:ba:11:d4:58:4c:d6:e9:
         7b:bf:a0:32:26:ad:ed:1c:17:ad:b3:54:b8:04:22:c1:83:f2:
         7d:aa:08:a8:8c:6e:31:d8:c0:94:8f:b5:12:34:0e:4f:46:84:
         d1:7c:28:7b:6c:21:8a:68:5c:a9:87:49:3d:37:96:09:de:df:
         1a:9b:9a:75:fc:80:c1:21:aa:9e:45:91:75:4e:44:40:b4:07:
         86:09:12:1c:1d:d6:c6:f0:94:84:30:7c:9d:0d:35:8b:1d:62:
         a9:ce:34:25
-----BEGIN CERTIFICATE-----
MIIDzzCCAregAwIBAgIBAjANBgkqhkiG9w0BAQsFADCBkzELMAkGA1UEBhMCRlIx
DzANBgNVBAgMBlJhZGl1czESMBAGA1UEBwwJU29tZXdoZXJlMRUwEwYDVQQKDAxF
eGFtcGxlIEluYy4xIDAeBgkqhkiG9w0BCQEWEWFkbWluQGV4YW1wbGUub3JnMSYw
JAYDVQQDDB1FeGFtcGxlIENlcnRpZmljYXRlIEF1dGhvcml0eTAeFw0yNDA2MjQw
NjUzMzVaFw0yNjAyMTQwNjUzMzVaMHExCzAJBgNVBAYTAkZSMQ8wDQYDVQQIDAZS
YWRpdXMxFTATBgNVBAoMDEV4YW1wbGUgSW5jLjEZMBcGA1UEAwwQdXNlckBleGFt
cGxlLm9yZzEfMB0GCSqGSIb3DQEJARYQdXNlckBleGFtcGxlLm9yZzCCASIwDQYJ
KoZIhvcNAQEBBQADggEPADCCAQoCggEBAL3BEgEAU1jGhTsRUskbRyfhHJizatBm
V5iPRdvlmj6j5bPotAigNQ/lRnbAsvKFzGk9JnPwbzF/xpU0LHXBFMzXNiLZamtg
TcwQ8BAoLYHQndp4zkNrWP3Q6RATQkQu96vbnxfg03Ci98veNaRSutHMhcAkqU2M
p6ZWfZE44BUgCYPEmDwtZfsRpQhzfjhZUza/Pel63tS2A0OYavzhBPXLzjBtte3V
w4l0+CNLWp/nOHjFSRB8/zg7lDjhgndmi6tQKsa8XbddKc1sru+1XduOWzP1zb+p
6JwUbSaLl1/upVWNxjI1FVVdX6yrDwrUh2R9nP+Kn5qmgOuaZOeCwT8CAwEAAaNP
ME0wEwYDVR0lBAwwCgYIKwYBBQUHAwIwNgYDVR0fBC8wLTAroCmgJ4YlaHR0cDov
L3d3dy5leGFtcGxlLmNvbS9leGFtcGxlX2NhLmNybDANBgkqhkiG9w0BAQsFAAOC
AQEAm9hTkVQMs039+jZY62WxdDa/MlznMsL9ELA2OrH/+rx0t28cI+BjRRxEr/4G
NXwAS2UNH0A2+i/uWaHGRwiO1cuI9zXKIy7WZgd9C9D+aa4A0KSBYSLVzpdysuTn
OyrhPYkzNcRoSYNTErlA0Dh8xPRRNtHEGFZmxEbS2UtsenklakDeIiaBGwil7tF/
0hjbhCisose/7+ThizK6EdRYTNbpe7+gMiat7RwXrbNUuAQiwYPyfaoIqIxuMdjA
lI+1EjQOT0aE0Xwoe2whimhcqYdJPTeWCd7fGpuadfyAwSGqnkWRdU5EQLQHhgkS
HB3WxvCUhDB8nQ01ix1iqc40JQ==
-----END CERTIFICATE-----
